	.file	"hello.c"
	.text
.Ltext0:
	.section	.text._ZNKSt5ctypeIcE8do_widenEc,"axG",@progbits,_ZNKSt5ctypeIcE8do_widenEc,comdat
	.align 2
	.p2align 4
	.weak	_ZNKSt5ctypeIcE8do_widenEc
	.type	_ZNKSt5ctypeIcE8do_widenEc, @function
_ZNKSt5ctypeIcE8do_widenEc:
.LVL0:
.LFB6615:
	.file 1 "/usr/include/c++/9/bits/locale_facets.h"
	.loc 1 1084 7 view -0
	.cfi_startproc
	.loc 1 1084 7 is_stmt 0 view .LVU1
	endbr64
	.loc 1 1085 9 is_stmt 1 view .LVU2
	.loc 1 1084 7 is_stmt 0 view .LVU3
	movl	%esi, %eax
	.loc 1 1085 21 view .LVU4
	ret
	.cfi_endproc
.LFE6615:
	.size	_ZNKSt5ctypeIcE8do_widenEc, .-_ZNKSt5ctypeIcE8do_widenEc
	.text
	.p2align 4
	.globl	_Z4mul8PKfS0_
	.type	_Z4mul8PKfS0_, @function
_Z4mul8PKfS0_:
.LVL1:
.LFB6858:
	.file 2 "hello.c"
	.loc 2 6 46 is_stmt 1 view -0
	.cfi_startproc
	.loc 2 6 46 is_stmt 0 view .LVU6
	endbr64
	.loc 2 7 5 is_stmt 1 view .LVU7
.LVL2:
.LBB102:
.LBI102:
	.file 3 "/usr/lib/gcc/x86_64-linux-gnu/9/include/avxintrin.h"
	.loc 3 896 1 view .LVU8
.LBB103:
	.loc 3 898 3 view .LVU9
	.loc 3 898 3 is_stmt 0 view .LVU10
.LBE103:
.LBE102:
	.loc 2 8 5 is_stmt 1 view .LVU11
.LBB106:
.LBI106:
	.loc 3 896 1 view .LVU12
.LBB107:
	.loc 3 898 3 view .LVU13
	.loc 3 898 3 is_stmt 0 view .LVU14
.LBE107:
.LBE106:
	.loc 2 9 5 is_stmt 1 view .LVU15
.LBB110:
.LBI110:
	.loc 3 318 1 view .LVU16
.LBB111:
	.loc 3 320 3 view .LVU17
	.loc 3 320 3 is_stmt 0 view .LVU18
.LBE111:
.LBE110:
.LBB113:
.LBB104:
	.loc 3 898 23 view .LVU19
	vmovups	(%rdi), %xmm2
.LBE104:
.LBE113:
.LBB114:
.LBB108:
	vmovups	(%rsi), %xmm3
.LBE108:
.LBE114:
.LBB115:
.LBB105:
	vinsertf128	$0x1, 16(%rdi), %ymm2, %ymm0
.LBE105:
.LBE115:
.LBB116:
.LBB109:
	vinsertf128	$0x1, 16(%rsi), %ymm3, %ymm1
.LBE109:
.LBE116:
.LBB117:
.LBB112:
	.loc 3 320 45 view .LVU20
	vmulps	%ymm1, %ymm0, %ymm0
.LBE112:
.LBE117:
	.loc 2 10 1 view .LVU21
	ret
	.cfi_endproc
.LFE6858:
	.size	_Z4mul8PKfS0_, .-_Z4mul8PKfS0_
	.p2align 4
	.globl	_Z4mul4PKdS0_
	.type	_Z4mul4PKdS0_, @function
_Z4mul4PKdS0_:
.LVL3:
.LFB6859:
	.loc 2 12 49 is_stmt 1 view -0
	.cfi_startproc
	.loc 2 12 49 is_stmt 0 view .LVU23
	endbr64
	.loc 2 13 5 is_stmt 1 view .LVU24
.LVL4:
.LBB118:
.LBI118:
	.loc 3 884 1 view .LVU25
.LBB119:
	.loc 3 886 3 view .LVU26
	.loc 3 886 3 is_stmt 0 view .LVU27
.LBE119:
.LBE118:
	.loc 2 14 5 is_stmt 1 view .LVU28
.LBB122:
.LBI122:
	.loc 3 884 1 view .LVU29
.LBB123:
	.loc 3 886 3 view .LVU30
	.loc 3 886 3 is_stmt 0 view .LVU31
.LBE123:
.LBE122:
	.loc 2 15 5 is_stmt 1 view .LVU32
.LBB126:
.LBI126:
	.loc 3 312 1 view .LVU33
.LBB127:
	.loc 3 314 3 view .LVU34
	.loc 3 314 3 is_stmt 0 view .LVU35
.LBE127:
.LBE126:
.LBB129:
.LBB120:
	.loc 3 886 24 view .LVU36
	vmovupd	(%rdi), %xmm2
.LBE120:
.LBE129:
.LBB130:
.LBB124:
	vmovupd	(%rsi), %xmm3
.LBE124:
.LBE130:
.LBB131:
.LBB121:
	vinsertf128	$0x1, 16(%rdi), %ymm2, %ymm0
.LBE121:
.LBE131:
.LBB132:
.LBB125:
	vinsertf128	$0x1, 16(%rsi), %ymm3, %ymm1
.LBE125:
.LBE132:
.LBB133:
.LBB128:
	.loc 3 314 46 view .LVU37
	vmulpd	%ymm1, %ymm0, %ymm0
.LBE128:
.LBE133:
	.loc 2 16 1 view .LVU38
	ret
	.cfi_endproc
.LFE6859:
	.size	_Z4mul4PKdS0_, .-_Z4mul4PKdS0_
	.p2align 4
	.globl	_Z4add8PKfS0_
	.type	_Z4add8PKfS0_, @function
_Z4add8PKfS0_:
.LVL5:
.LFB6860:
	.loc 2 18 46 is_stmt 1 view -0
	.cfi_startproc
	.loc 2 18 46 is_stmt 0 view .LVU40
	endbr64
	.loc 2 19 5 is_stmt 1 view .LVU41
.LVL6:
.LBB134:
.LBI134:
	.loc 3 896 1 view .LVU42
.LBB135:
	.loc 3 898 3 view .LVU43
	.loc 3 898 3 is_stmt 0 view .LVU44
.LBE135:
.LBE134:
	.loc 2 20 5 is_stmt 1 view .LVU45
.LBB138:
.LBI138:
	.loc 3 896 1 view .LVU46
.LBB139:
	.loc 3 898 3 view .LVU47
	.loc 3 898 3 is_stmt 0 view .LVU48
.LBE139:
.LBE138:
	.loc 2 21 5 is_stmt 1 view .LVU49
.LBB142:
.LBI142:
	.loc 3 147 1 view .LVU50
.LBB143:
	.loc 3 149 3 view .LVU51
	.loc 3 149 3 is_stmt 0 view .LVU52
.LBE143:
.LBE142:
.LBB145:
.LBB136:
	.loc 3 898 23 view .LVU53
	vmovups	(%rdi), %xmm2
.LBE136:
.LBE145:
.LBB146:
.LBB140:
	vmovups	(%rsi), %xmm3
.LBE140:
.LBE146:
.LBB147:
.LBB137:
	vinsertf128	$0x1, 16(%rdi), %ymm2, %ymm0
.LBE137:
.LBE147:
.LBB148:
.LBB141:
	vinsertf128	$0x1, 16(%rsi), %ymm3, %ymm1
.LBE141:
.LBE148:
.LBB149:
.LBB144:
	.loc 3 149 45 view .LVU54
	vaddps	%ymm1, %ymm0, %ymm0
.LBE144:
.LBE149:
	.loc 2 22 1 view .LVU55
	ret
	.cfi_endproc
.LFE6860:
	.size	_Z4add8PKfS0_, .-_Z4add8PKfS0_
	.p2align 4
	.globl	_Z13save_registerPfDv8_f
	.type	_Z13save_registerPfDv8_f, @function
_Z13save_registerPfDv8_f:
.LVL7:
.LFB6861:
	.loc 2 24 43 is_stmt 1 view -0
	.cfi_startproc
	.loc 2 24 43 is_stmt 0 view .LVU57
	endbr64
	.loc 2 25 5 is_stmt 1 view .LVU58
.LVL8:
.LBB150:
.LBI150:
	.loc 3 902 1 view .LVU59
.LBB151:
	.loc 3 904 3 view .LVU60
	.loc 3 904 20 is_stmt 0 view .LVU61
	vmovups	%xmm0, (%rdi)
	vextractf128	$0x1, %ymm0, 16(%rdi)
.LVL9:
	.loc 3 904 20 view .LVU62
.LBE151:
.LBE150:
	.loc 2 26 1 view .LVU63
	ret
	.cfi_endproc
.LFE6861:
	.size	_Z13save_registerPfDv8_f, .-_Z13save_registerPfDv8_f
	.p2align 4
	.globl	_Z13save_registerPdDv4_d
	.type	_Z13save_registerPdDv4_d, @function
_Z13save_registerPdDv4_d:
.LVL10:
.LFB6862:
	.loc 2 28 45 is_stmt 1 view -0
	.cfi_startproc
	.loc 2 28 45 is_stmt 0 view .LVU65
	endbr64
	.loc 2 29 5 is_stmt 1 view .LVU66
.LVL11:
.LBB152:
.LBI152:
	.loc 3 890 1 view .LVU67
.LBB153:
	.loc 3 892 3 view .LVU68
	.loc 3 892 21 is_stmt 0 view .LVU69
	vmovups	%xmm0, (%rdi)
	vextractf128	$0x1, %ymm0, 16(%rdi)
.LVL12:
	.loc 3 892 21 view .LVU70
.LBE153:
.LBE152:
	.loc 2 30 1 view .LVU71
	ret
	.cfi_endproc
.LFE6862:
	.size	_Z13save_registerPdDv4_d, .-_Z13save_registerPdDv4_d
	.section	.rodata.str1.1,"aMS",@progbits,1
.LC0:
	.string	"["
.LC1:
	.string	"]"
.LC2:
	.string	", "
	.text
	.p2align 4
	.globl	_Z12print_vectorPfi
	.type	_Z12print_vectorPfi, @function
_Z12print_vectorPfi:
.LVL13:
.LFB6863:
	.loc 2 32 42 is_stmt 1 view -0
	.cfi_startproc
	.loc 2 32 42 is_stmt 0 view .LVU73
	endbr64
	.loc 2 33 5 is_stmt 1 view .LVU74
.LVL14:
.LBB183:
.LBI183:
	.file 4 "/usr/include/c++/9/ostream"
	.loc 4 565 5 view .LVU75
	.loc 4 565 5 is_stmt 0 view .LVU76
.LBE183:
	.file 5 "/usr/include/c++/9/bits/char_traits.h"
	.loc 5 335 2 is_stmt 1 view .LVU77
	.loc 2 32 42 is_stmt 0 view .LVU78
	pushq	%r15
	.cfi_def_cfa_offset 16
	.cfi_offset 15, -16
.LBB188:
.LBB184:
	.loc 4 570 18 view .LVU79
	movl	$1, %edx
.LBE184:
.LBE188:
	.loc 2 32 42 view .LVU80
	pushq	%r14
	.cfi_def_cfa_offset 24
	.cfi_offset 14, -24
	movq	%rdi, %r14
.LBB189:
.LBB185:
	.loc 4 570 18 view .LVU81
	leaq	_ZSt4cout(%rip), %rdi
.LVL15:
	.loc 4 570 18 view .LVU82
.LBE185:
.LBE189:
	.loc 2 32 42 view .LVU83
	pushq	%r13
	.cfi_def_cfa_offset 32
	.cfi_offset 13, -32
	movl	%esi, %r13d
.LBB190:
.LBB186:
	.loc 4 570 18 view .LVU84
	leaq	.LC0(%rip), %rsi
.LVL16:
	.loc 4 570 18 view .LVU85
.LBE186:
.LBE190:
	.loc 2 32 42 view .LVU86
	pushq	%r12
	.cfi_def_cfa_offset 40
	.cfi_offset 12, -40
	pushq	%rbp
	.cfi_def_cfa_offset 48
	.cfi_offset 6, -48
	pushq	%rbx
	.cfi_def_cfa_offset 56
	.cfi_offset 3, -56
	subq	$8, %rsp
	.cfi_def_cfa_offset 64
.LBB191:
.LBB187:
	.loc 4 570 18 view .LVU87
	call	_ZSt16__ostream_insertIcSt11char_traitsIcEERSt13basic_ostreamIT_T0_ES6_PKS3_l@PLT
.LVL17:
	.loc 4 570 18 view .LVU88
.LBE187:
.LBE191:
.LBB192:
	.loc 2 34 19 is_stmt 1 view .LVU89
	testl	%r13d, %r13d
	jle	.L14
	leal	-1(%r13), %r15d
	testl	%r15d, %r15d
	jle	.L19
	movq	%r14, %rbp
	.loc 2 34 13 is_stmt 0 view .LVU90
	xorl	%ebx, %ebx
.LBB193:
.LBB194:
	.loc 4 228 43 view .LVU91
	leaq	_ZSt4cout(%rip), %r12
.LVL18:
	.p2align 4,,10
	.p2align 3
.L13:
	.loc 4 228 43 view .LVU92
.LBE194:
.LBE193:
	.loc 2 35 9 is_stmt 1 view .LVU93
.LBB199:
.LBI193:
	.loc 4 224 7 view .LVU94
.LBB195:
	.loc 4 228 43 is_stmt 0 view .LVU95
	vxorpd	%xmm1, %xmm1, %xmm1
	movq	%r12, %rdi
.LBE195:
.LBE199:
	.loc 2 34 5 view .LVU96
	addl	$1, %ebx
.LVL19:
	.loc 2 34 5 view .LVU97
	addq	$4, %rbp
.LVL20:
.LBB200:
.LBB196:
	.loc 4 228 43 view .LVU98
	vcvtss2sd	-4(%rbp), %xmm1, %xmm0
	call	_ZNSo9_M_insertIdEERSoT_@PLT
.LVL21:
	.loc 4 228 43 view .LVU99
.LBE196:
.LBE200:
	.loc 2 36 9 is_stmt 1 view .LVU100
	.loc 2 37 13 view .LVU101
.LBB201:
.LBI201:
	.loc 4 565 5 view .LVU102
	.loc 4 565 5 is_stmt 0 view .LVU103
.LBE201:
.LBE192:
	.loc 5 335 2 is_stmt 1 view .LVU104
.LBB206:
.LBB203:
.LBB202:
	.loc 4 570 18 is_stmt 0 view .LVU105
	movl	$2, %edx
	movq	%r12, %rdi
	leaq	.LC2(%rip), %rsi
	call	_ZSt16__ostream_insertIcSt11char_traitsIcEERSt13basic_ostreamIT_T0_ES6_PKS3_l@PLT
.LVL22:
	.loc 4 570 18 view .LVU106
.LBE202:
.LBE203:
	.loc 2 34 5 is_stmt 1 view .LVU107
	.loc 2 34 19 view .LVU108
	cmpl	%r15d, %ebx
	jl	.L13
	cmpl	%ebx, %r13d
	jle	.L14
.LVL23:
.L12:
	.loc 2 34 19 is_stmt 0 view .LVU109
	movslq	%ebx, %rbx
.LBB204:
.LBB197:
	.loc 4 228 43 view .LVU110
	leaq	_ZSt4cout(%rip), %rbp
	.p2align 4,,10
	.p2align 3
.L16:
.LVL24:
	.loc 4 228 43 view .LVU111
.LBE197:
.LBE204:
	.loc 2 35 9 is_stmt 1 view .LVU112
.LBB205:
	.loc 4 224 7 view .LVU113
.LBB198:
	.loc 4 228 43 is_stmt 0 view .LVU114
	vxorpd	%xmm2, %xmm2, %xmm2
	movq	%rbp, %rdi
	vcvtss2sd	(%r14,%rbx,4), %xmm2, %xmm0
	call	_ZNSo9_M_insertIdEERSoT_@PLT
.LVL25:
	.loc 4 228 43 view .LVU115
.LBE198:
.LBE205:
	.loc 2 36 9 is_stmt 1 view .LVU116
	.loc 2 34 5 view .LVU117
	.loc 2 34 19 view .LVU118
	addq	$1, %rbx
.LVL26:
	.loc 2 34 19 is_stmt 0 view .LVU119
	cmpl	%ebx, %r13d
	jg	.L16
.L14:
	.loc 2 34 19 view .LVU120
.LBE206:
	.loc 2 40 5 is_stmt 1 view .LVU121
.LVL27:
.LBB207:
.LBI207:
	.loc 4 565 5 view .LVU122
	.loc 4 565 5 is_stmt 0 view .LVU123
.LBE207:
	.loc 5 335 2 is_stmt 1 view .LVU124
.LBB209:
.LBB208:
	.loc 4 570 18 is_stmt 0 view .LVU125
	movl	$1, %edx
	leaq	.LC1(%rip), %rsi
	leaq	_ZSt4cout(%rip), %rdi
	call	_ZSt16__ostream_insertIcSt11char_traitsIcEERSt13basic_ostreamIT_T0_ES6_PKS3_l@PLT
.LVL28:
	.loc 4 570 18 view .LVU126
.LBE208:
.LBE209:
.LBB210:
.LBI210:
	.loc 4 108 7 is_stmt 1 view .LVU127
.LBB211:
.LBI211:
	.loc 4 599 5 view .LVU128
.LBB212:
.LBB213:
.LBI213:
	.file 6 "/usr/include/c++/9/bits/basic_ios.h"
	.loc 6 449 7 view .LVU129
.LBE213:
	.loc 4 600 19 is_stmt 0 view .LVU130
	movq	_ZSt4cout(%rip), %rax
.LBB226:
.LBB214:
	.loc 6 450 30 view .LVU131
	leaq	_ZSt4cout(%rip), %rdx
.LVL29:
	.loc 6 450 30 view .LVU132
	movq	-24(%rax), %rax
.LVL30:
	.loc 6 450 30 view .LVU133
	movq	240(%rdx,%rax), %rbp
.LVL31:
.LBB215:
.LBI215:
	.loc 6 47 5 is_stmt 1 view .LVU134
.LBB216:
	.loc 6 49 7 is_stmt 0 view .LVU135
	testq	%rbp, %rbp
	je	.L24
.LVL32:
	.loc 6 49 7 view .LVU136
.LBE216:
.LBE215:
.LBB218:
.LBI218:
	.loc 1 872 7 is_stmt 1 view .LVU137
.LBB219:
	.loc 1 874 2 view .LVU138
	cmpb	$0, 56(%rbp)
	je	.L17
	.loc 1 875 4 view .LVU139
	movsbl	67(%rbp), %esi
.LVL33:
.L18:
	.loc 1 875 4 is_stmt 0 view .LVU140
.LBE219:
.LBE218:
.LBE214:
.LBE226:
	.loc 4 600 19 view .LVU141
	leaq	_ZSt4cout(%rip), %rdi
	call	_ZNSo3putEc@PLT
.LVL34:
.LBE212:
.LBE211:
.LBE210:
	.loc 2 42 1 view .LVU142
	addq	$8, %rsp
	.cfi_remember_state
	.cfi_def_cfa_offset 56
	popq	%rbx
	.cfi_def_cfa_offset 48
.LBB237:
.LBB234:
.LBB231:
	.loc 4 600 19 view .LVU143
	movq	%rax, %rdi
.LVL35:
.LBB227:
.LBI227:
	.loc 4 621 5 is_stmt 1 view .LVU144
.LBE227:
.LBE231:
.LBE234:
.LBE237:
	.loc 2 42 1 is_stmt 0 view .LVU145
	popq	%rbp
	.cfi_def_cfa_offset 40
	popq	%r12
	.cfi_def_cfa_offset 32
	popq	%r13
	.cfi_def_cfa_offset 24
.LVL36:
	.loc 2 42 1 view .LVU146
	popq	%r14
	.cfi_def_cfa_offset 16
.LVL37:
	.loc 2 42 1 view .LVU147
	popq	%r15
	.cfi_def_cfa_offset 8
.LBB238:
.LBB235:
.LBB232:
.LBB229:
.LBB228:
	.loc 4 622 25 view .LVU148
	jmp	_ZNSo5flushEv@PLT
.LVL38:
	.p2align 4,,10
	.p2align 3
.L19:
	.cfi_restore_state
	.loc 4 622 25 view .LVU149
.LBE228:
.LBE229:
.LBE232:
.LBE235:
.LBE238:
.LBB239:
	.loc 2 34 19 view .LVU150
	xorl	%ebx, %ebx
	jmp	.L12
.LVL39:
	.p2align 4,,10
	.p2align 3
.L17:
	.loc 2 34 19 view .LVU151
.LBE239:
.LBB240:
.LBB236:
.LBB233:
.LBB230:
.LBB225:
.LBB223:
.LBB222:
.LBB220:
.LBI220:
	.loc 1 872 7 is_stmt 1 view .LVU152
.LBB221:
	.loc 1 876 2 view .LVU153
	.loc 1 876 21 is_stmt 0 view .LVU154
	movq	%rbp, %rdi
	call	_ZNKSt5ctypeIcE13_M_widen_initEv@PLT
.LVL40:
	.loc 1 877 2 is_stmt 1 view .LVU155
	.loc 1 877 27 is_stmt 0 view .LVU156
	movq	0(%rbp), %rax
	movl	$10, %esi
	leaq	_ZNKSt5ctypeIcE8do_widenEc(%rip), %rdx
	movq	48(%rax), %rax
	cmpq	%rdx, %rax
	je	.L18
	.loc 1 877 23 view .LVU157
	movq	%rbp, %rdi
	call	*%rax
.LVL41:
	movsbl	%al, %esi
	jmp	.L18
.LVL42:
.L24:
	.loc 1 877 23 view .LVU158
.LBE221:
.LBE220:
.LBE222:
.LBE223:
.LBB224:
.LBB217:
	.loc 6 50 18 view .LVU159
	call	_ZSt16__throw_bad_castv@PLT
.LVL43:
	.loc 6 50 18 view .LVU160
.LBE217:
.LBE224:
.LBE225:
.LBE230:
.LBE233:
.LBE236:
.LBE240:
	.cfi_endproc
.LFE6863:
	.size	_Z12print_vectorPfi, .-_Z12print_vectorPfi
	.p2align 4
	.globl	_Z12print_vectorPdi
	.type	_Z12print_vectorPdi, @function
_Z12print_vectorPdi:
.LVL44:
.LFB6864:
	.loc 2 44 43 is_stmt 1 view -0
	.cfi_startproc
	.loc 2 44 43 is_stmt 0 view .LVU162
	endbr64
	.loc 2 45 5 is_stmt 1 view .LVU163
.LVL45:
.LBB270:
.LBI270:
	.loc 4 565 5 view .LVU164
	.loc 4 565 5 is_stmt 0 view .LVU165
.LBE270:
	.loc 5 335 2 is_stmt 1 view .LVU166
	.loc 2 44 43 is_stmt 0 view .LVU167
	pushq	%r15
	.cfi_def_cfa_offset 16
	.cfi_offset 15, -16
.LBB275:
.LBB271:
	.loc 4 570 18 view .LVU168
	movl	$1, %edx
.LBE271:
.LBE275:
	.loc 2 44 43 view .LVU169
	pushq	%r14
	.cfi_def_cfa_offset 24
	.cfi_offset 14, -24
	movq	%rdi, %r14
.LBB276:
.LBB272:
	.loc 4 570 18 view .LVU170
	leaq	_ZSt4cout(%rip), %rdi
.LVL46:
	.loc 4 570 18 view .LVU171
.LBE272:
.LBE276:
	.loc 2 44 43 view .LVU172
	pushq	%r13
	.cfi_def_cfa_offset 32
	.cfi_offset 13, -32
	movl	%esi, %r13d
.LBB277:
.LBB273:
	.loc 4 570 18 view .LVU173
	leaq	.LC0(%rip), %rsi
.LVL47:
	.loc 4 570 18 view .LVU174
.LBE273:
.LBE277:
	.loc 2 44 43 view .LVU175
	pushq	%r12
	.cfi_def_cfa_offset 40
	.cfi_offset 12, -40
	pushq	%rbp
	.cfi_def_cfa_offset 48
	.cfi_offset 6, -48
	pushq	%rbx
	.cfi_def_cfa_offset 56
	.cfi_offset 3, -56
	subq	$8, %rsp
	.cfi_def_cfa_offset 64
.LBB278:
.LBB274:
	.loc 4 570 18 view .LVU176
	call	_ZSt16__ostream_insertIcSt11char_traitsIcEERSt13basic_ostreamIT_T0_ES6_PKS3_l@PLT
.LVL48:
	.loc 4 570 18 view .LVU177
.LBE274:
.LBE278:
.LBB279:
	.loc 2 46 19 is_stmt 1 view .LVU178
	testl	%r13d, %r13d
	jle	.L31
	leal	-1(%r13), %r15d
	testl	%r15d, %r15d
	jle	.L36
	movq	%r14, %rbp
	.loc 2 46 13 is_stmt 0 view .LVU179
	xorl	%ebx, %ebx
.LBB280:
.LBB281:
	.loc 4 221 29 view .LVU180
	leaq	_ZSt4cout(%rip), %r12
.LVL49:
	.p2align 4,,10
	.p2align 3
.L30:
	.loc 4 221 29 view .LVU181
.LBE281:
.LBE280:
	.loc 2 47 9 is_stmt 1 view .LVU182
.LBB286:
.LBI280:
	.loc 4 220 7 view .LVU183
.LBB282:
	.loc 4 221 29 is_stmt 0 view .LVU184
	vmovsd	0(%rbp), %xmm0
	movq	%r12, %rdi
.LBE282:
.LBE286:
	.loc 2 46 5 view .LVU185
	addl	$1, %ebx
.LVL50:
	.loc 2 46 5 view .LVU186
	addq	$8, %rbp
.LVL51:
.LBB287:
.LBB283:
	.loc 4 221 29 view .LVU187
	call	_ZNSo9_M_insertIdEERSoT_@PLT
.LVL52:
	.loc 4 221 29 view .LVU188
.LBE283:
.LBE287:
	.loc 2 48 9 is_stmt 1 view .LVU189
	.loc 2 49 13 view .LVU190
.LBB288:
.LBI288:
	.loc 4 565 5 view .LVU191
	.loc 4 565 5 is_stmt 0 view .LVU192
.LBE288:
.LBE279:
	.loc 5 335 2 is_stmt 1 view .LVU193
.LBB293:
.LBB290:
.LBB289:
	.loc 4 570 18 is_stmt 0 view .LVU194
	movl	$2, %edx
	leaq	.LC2(%rip), %rsi
	movq	%r12, %rdi
	call	_ZSt16__ostream_insertIcSt11char_traitsIcEERSt13basic_ostreamIT_T0_ES6_PKS3_l@PLT
.LVL53:
	.loc 4 570 18 view .LVU195
.LBE289:
.LBE290:
	.loc 2 46 5 is_stmt 1 view .LVU196
	.loc 2 46 19 view .LVU197
	cmpl	%r15d, %ebx
	jl	.L30
	cmpl	%ebx, %r13d
	jle	.L31
.LVL54:
.L29:
	.loc 2 46 19 is_stmt 0 view .LVU198
	movslq	%ebx, %rbx
.LBB291:
.LBB284:
	.loc 4 221 29 view .LVU199
	leaq	_ZSt4cout(%rip), %rbp
	.p2align 4,,10
	.p2align 3
.L33:
.LVL55:
	.loc 4 221 29 view .LVU200
.LBE284:
.LBE291:
	.loc 2 47 9 is_stmt 1 view .LVU201
.LBB292:
	.loc 4 220 7 view .LVU202
.LBB285:
	.loc 4 221 29 is_stmt 0 view .LVU203
	vmovsd	(%r14,%rbx,8), %xmm0
	movq	%rbp, %rdi
	addq	$1, %rbx
.LVL56:
	.loc 4 221 29 view .LVU204
	call	_ZNSo9_M_insertIdEERSoT_@PLT
.LVL57:
	.loc 4 221 29 view .LVU205
.LBE285:
.LBE292:
	.loc 2 48 9 is_stmt 1 view .LVU206
	.loc 2 46 5 view .LVU207
	.loc 2 46 19 view .LVU208
	cmpl	%ebx, %r13d
	jg	.L33
.L31:
	.loc 2 46 19 is_stmt 0 view .LVU209
.LBE293:
	.loc 2 52 5 is_stmt 1 view .LVU210
.LVL58:
.LBB294:
.LBI294:
	.loc 4 565 5 view .LVU211
	.loc 4 565 5 is_stmt 0 view .LVU212
.LBE294:
	.loc 5 335 2 is_stmt 1 view .LVU213
.LBB296:
.LBB295:
	.loc 4 570 18 is_stmt 0 view .LVU214
	movl	$1, %edx
	leaq	.LC1(%rip), %rsi
	leaq	_ZSt4cout(%rip), %rdi
	call	_ZSt16__ostream_insertIcSt11char_traitsIcEERSt13basic_ostreamIT_T0_ES6_PKS3_l@PLT
.LVL59:
	.loc 4 570 18 view .LVU215
.LBE295:
.LBE296:
.LBB297:
.LBI297:
	.loc 4 108 7 is_stmt 1 view .LVU216
.LBB298:
.LBI298:
	.loc 4 599 5 view .LVU217
.LBB299:
.LBB300:
.LBI300:
	.loc 6 449 7 view .LVU218
.LBE300:
	.loc 4 600 19 is_stmt 0 view .LVU219
	movq	_ZSt4cout(%rip), %rax
.LBB313:
.LBB301:
	.loc 6 450 30 view .LVU220
	leaq	_ZSt4cout(%rip), %rdx
.LVL60:
	.loc 6 450 30 view .LVU221
	movq	-24(%rax), %rax
.LVL61:
	.loc 6 450 30 view .LVU222
	movq	240(%rdx,%rax), %rbp
.LVL62:
.LBB302:
.LBI302:
	.loc 6 47 5 is_stmt 1 view .LVU223
.LBB303:
	.loc 6 49 7 is_stmt 0 view .LVU224
	testq	%rbp, %rbp
	je	.L41
.LVL63:
	.loc 6 49 7 view .LVU225
.LBE303:
.LBE302:
.LBB305:
.LBI305:
	.loc 1 872 7 is_stmt 1 view .LVU226
.LBB306:
	.loc 1 874 2 view .LVU227
	cmpb	$0, 56(%rbp)
	je	.L34
	.loc 1 875 4 view .LVU228
	movsbl	67(%rbp), %esi
.LVL64:
.L35:
	.loc 1 875 4 is_stmt 0 view .LVU229
.LBE306:
.LBE305:
.LBE301:
.LBE313:
	.loc 4 600 19 view .LVU230
	leaq	_ZSt4cout(%rip), %rdi
	call	_ZNSo3putEc@PLT
.LVL65:
.LBE299:
.LBE298:
.LBE297:
	.loc 2 54 1 view .LVU231
	addq	$8, %rsp
	.cfi_remember_state
	.cfi_def_cfa_offset 56
	popq	%rbx
	.cfi_def_cfa_offset 48
.LBB324:
.LBB321:
.LBB318:
	.loc 4 600 19 view .LVU232
	movq	%rax, %rdi
.LVL66:
.LBB314:
.LBI314:
	.loc 4 621 5 is_stmt 1 view .LVU233
.LBE314:
.LBE318:
.LBE321:
.LBE324:
	.loc 2 54 1 is_stmt 0 view .LVU234
	popq	%rbp
	.cfi_def_cfa_offset 40
	popq	%r12
	.cfi_def_cfa_offset 32
	popq	%r13
	.cfi_def_cfa_offset 24
.LVL67:
	.loc 2 54 1 view .LVU235
	popq	%r14
	.cfi_def_cfa_offset 16
.LVL68:
	.loc 2 54 1 view .LVU236
	popq	%r15
	.cfi_def_cfa_offset 8
.LBB325:
.LBB322:
.LBB319:
.LBB316:
.LBB315:
	.loc 4 622 25 view .LVU237
	jmp	_ZNSo5flushEv@PLT
.LVL69:
	.p2align 4,,10
	.p2align 3
.L36:
	.cfi_restore_state
	.loc 4 622 25 view .LVU238
.LBE315:
.LBE316:
.LBE319:
.LBE322:
.LBE325:
.LBB326:
	.loc 2 46 19 view .LVU239
	xorl	%ebx, %ebx
	jmp	.L29
.LVL70:
	.p2align 4,,10
	.p2align 3
.L34:
	.loc 2 46 19 view .LVU240
.LBE326:
.LBB327:
.LBB323:
.LBB320:
.LBB317:
.LBB312:
.LBB310:
.LBB309:
.LBB307:
.LBI307:
	.loc 1 872 7 is_stmt 1 view .LVU241
.LBB308:
	.loc 1 876 2 view .LVU242
	.loc 1 876 21 is_stmt 0 view .LVU243
	movq	%rbp, %rdi
	call	_ZNKSt5ctypeIcE13_M_widen_initEv@PLT
.LVL71:
	.loc 1 877 2 is_stmt 1 view .LVU244
	.loc 1 877 27 is_stmt 0 view .LVU245
	movq	0(%rbp), %rax
	movl	$10, %esi
	leaq	_ZNKSt5ctypeIcE8do_widenEc(%rip), %rdx
	movq	48(%rax), %rax
	cmpq	%rdx, %rax
	je	.L35
	.loc 1 877 23 view .LVU246
	movq	%rbp, %rdi
	call	*%rax
.LVL72:
	movsbl	%al, %esi
	jmp	.L35
.LVL73:
.L41:
	.loc 1 877 23 view .LVU247
.LBE308:
.LBE307:
.LBE309:
.LBE310:
.LBB311:
.LBB304:
	.loc 6 50 18 view .LVU248
	call	_ZSt16__throw_bad_castv@PLT
.LVL74:
	.loc 6 50 18 view .LVU249
.LBE304:
.LBE311:
.LBE312:
.LBE317:
.LBE320:
.LBE323:
.LBE327:
	.cfi_endproc
.LFE6864:
	.size	_Z12print_vectorPdi, .-_Z12print_vectorPdi
	.section	.text.startup,"ax",@progbits
	.p2align 4
	.globl	main
	.type	main, @function
main:
.LFB6865:
	.loc 2 57 11 is_stmt 1 view -0
	.cfi_startproc
	endbr64
	pushq	%rbp
	.cfi_def_cfa_offset 16
	.cfi_offset 6, -16
	.loc 2 62 17 is_stmt 0 view .LVU251
	movl	$8, %esi
	.loc 2 57 11 view .LVU252
	movq	%rsp, %rbp
	.cfi_def_cfa_register 6
	pushq	%r12
	subq	$88, %rsp
	.cfi_offset 12, -24
.LBB328:
.LBB329:
.LBB330:
	.loc 3 904 20 view .LVU253
	vmovaps	.LC3(%rip), %ymm0
.LBE330:
.LBE329:
.LBE328:
	.loc 2 57 11 view .LVU254
	movq	%fs:40, %rax
	movq	%rax, 72(%rsp)
	xorl	%eax, %eax
	.loc 2 58 5 is_stmt 1 view .LVU255
	.loc 2 59 5 view .LVU256
	.loc 2 60 5 view .LVU257
	.loc 2 61 5 view .LVU258
.LVL75:
	.loc 2 7 5 view .LVU259
	.loc 3 898 3 view .LVU260
	.loc 2 8 5 view .LVU261
	.loc 3 898 3 view .LVU262
	.loc 2 9 5 view .LVU263
	.loc 3 320 3 view .LVU264
.LBB335:
.LBI328:
	.loc 2 24 6 view .LVU265
.LBE335:
	.loc 2 25 5 view .LVU266
.LBB336:
.LBB333:
.LBI329:
	.loc 3 902 1 view .LVU267
.LBB331:
	.loc 3 904 3 view .LVU268
.LBE331:
.LBE333:
.LBE336:
	.loc 2 62 17 is_stmt 0 view .LVU269
	movq	%rsp, %r12
	movq	%r12, %rdi
.LBB337:
.LBB334:
.LBB332:
	.loc 3 904 20 view .LVU270
	vmovaps	%xmm0, (%rsp)
	vextractf128	$0x1, %ymm0, 16(%rsp)
.LVL76:
	.loc 3 904 20 view .LVU271
.LBE332:
.LBE334:
.LBE337:
	.loc 2 62 5 is_stmt 1 view .LVU272
	.loc 2 62 17 is_stmt 0 view .LVU273
	vzeroupper
	call	_Z12print_vectorPfi
.LVL77:
	.loc 2 64 5 is_stmt 1 view .LVU274
	.loc 2 19 5 view .LVU275
	.loc 3 898 3 view .LVU276
	.loc 2 20 5 view .LVU277
	.loc 3 898 3 view .LVU278
	.loc 2 21 5 view .LVU279
	.loc 3 149 3 view .LVU280
.LBB338:
.LBI338:
	.loc 2 24 6 view .LVU281
.LBE338:
	.loc 2 25 5 view .LVU282
.LBB343:
.LBB339:
.LBI339:
	.loc 3 902 1 view .LVU283
.LBB340:
	.loc 3 904 3 view .LVU284
.LBE340:
.LBE339:
.LBE343:
	.loc 2 65 17 is_stmt 0 view .LVU285
	movl	$8, %esi
	movq	%r12, %rdi
.LBB344:
.LBB342:
.LBB341:
	.loc 3 904 20 view .LVU286
	vmovaps	.LC4(%rip), %ymm0
	vmovaps	%xmm0, (%rsp)
	vextractf128	$0x1, %ymm0, 16(%rsp)
.LVL78:
	.loc 3 904 20 view .LVU287
.LBE341:
.LBE342:
.LBE344:
	.loc 2 65 5 is_stmt 1 view .LVU288
	.loc 2 65 17 is_stmt 0 view .LVU289
	vzeroupper
	call	_Z12print_vectorPfi
.LVL79:
	.loc 2 67 5 is_stmt 1 view .LVU290
	.loc 2 68 5 view .LVU291
	.loc 2 69 5 view .LVU292
	.loc 2 70 5 view .LVU293
	.loc 2 13 5 view .LVU294
	.loc 3 886 3 view .LVU295
	.loc 2 14 5 view .LVU296
	.loc 3 886 3 view .LVU297
	.loc 2 15 5 view .LVU298
	.loc 3 314 3 view .LVU299
.LBB345:
.LBI345:
	.loc 2 28 6 view .LVU300
.LBE345:
	.loc 2 29 5 view .LVU301
.LBB350:
.LBB346:
.LBI346:
	.loc 3 890 1 view .LVU302
.LBB347:
	.loc 3 892 3 view .LVU303
.LBE347:
.LBE346:
.LBE350:
	.loc 2 71 17 is_stmt 0 view .LVU304
	leaq	32(%rsp), %rdi
.LVL80:
	.loc 2 71 17 view .LVU305
	movl	$4, %esi
.LBB351:
.LBB349:
.LBB348:
	.loc 3 892 21 view .LVU306
	vmovapd	.LC5(%rip), %ymm0
	vmovaps	%xmm0, 32(%rsp)
	vextractf128	$0x1, %ymm0, 48(%rsp)
.LVL81:
	.loc 3 892 21 view .LVU307
.LBE348:
.LBE349:
.LBE351:
	.loc 2 71 5 is_stmt 1 view .LVU308
	.loc 2 71 17 is_stmt 0 view .LVU309
	vzeroupper
	call	_Z12print_vectorPdi
.LVL82:
	.loc 2 72 1 view .LVU310
	movq	72(%rsp), %rax
	xorq	%fs:40, %rax
	jne	.L45
	addq	$88, %rsp
	xorl	%eax, %eax
	popq	%r12
	popq	%rbp
	.cfi_remember_state
	.cfi_def_cfa 7, 8
	ret
.L45:
	.cfi_restore_state
	call	__stack_chk_fail@PLT
.LVL83:
	.cfi_endproc
.LFE6865:
	.size	main, .-main
	.p2align 4
	.type	_GLOBAL__sub_I__Z4mul8PKfS0_, @function
_GLOBAL__sub_I__Z4mul8PKfS0_:
.LFB7356:
	.loc 2 72 1 is_stmt 1 view -0
	.cfi_startproc
	endbr64
.LVL84:
.LBB352:
.LBI352:
	.loc 2 72 1 view .LVU312
.LBE352:
	subq	$8, %rsp
	.cfi_def_cfa_offset 16
.LBB355:
.LBB353:
	.file 7 "/usr/include/c++/9/iostream"
	.loc 7 74 25 is_stmt 0 view .LVU313
	leaq	_ZStL8__ioinit(%rip), %rdi
	call	_ZNSt8ios_base4InitC1Ev@PLT
.LVL85:
	movq	_ZNSt8ios_base4InitD1Ev@GOTPCREL(%rip), %rdi
.LBE353:
.LBE355:
	.loc 2 72 1 view .LVU314
	addq	$8, %rsp
	.cfi_def_cfa_offset 8
.LBB356:
.LBB354:
	.loc 7 74 25 view .LVU315
	leaq	__dso_handle(%rip), %rdx
	leaq	_ZStL8__ioinit(%rip), %rsi
	jmp	__cxa_atexit@PLT
.LVL86:
.LBE354:
.LBE356:
	.cfi_endproc
.LFE7356:
	.size	_GLOBAL__sub_I__Z4mul8PKfS0_, .-_GLOBAL__sub_I__Z4mul8PKfS0_
	.section	.init_array,"aw"
	.align 8
	.quad	_GLOBAL__sub_I__Z4mul8PKfS0_
	.local	_ZStL8__ioinit
	.comm	_ZStL8__ioinit,1,1
	.section	.rodata.cst32,"aM",@progbits,32
	.align 32
.LC3:
	.long	0
	.long	1065353216
	.long	1082130432
	.long	1091567616
	.long	1098907648
	.long	1103626240
	.long	1108344832
	.long	1111752704
	.align 32
.LC4:
	.long	0
	.long	1073741824
	.long	1082130432
	.long	1086324736
	.long	1090519040
	.long	1092616192
	.long	1094713344
	.long	1096810496
	.align 32
.LC5:
	.long	0
	.long	1072693248
	.long	0
	.long	1074790400
	.long	0
	.long	1075970048
	.long	0
	.long	1076887552
	.text
.Letext0:
	.file 8 "/usr/include/c++/9/cstdlib"
	.file 9 "/usr/include/c++/9/bits/std_abs.h"
	.file 10 "/usr/include/c++/9/cwchar"
	.file 11 "/usr/include/c++/9/new"
	.file 12 "/usr/include/c++/9/bits/exception_ptr.h"
	.file 13 "/usr/include/c++/9/type_traits"
	.file 14 "/usr/include/x86_64-linux-gnu/c++/9/bits/c++config.h"
	.file 15 "/usr/include/c++/9/bits/stl_pair.h"
	.file 16 "/usr/include/c++/9/debug/debug.h"
	.file 17 "/usr/include/c++/9/cstdint"
	.file 18 "/usr/include/c++/9/clocale"
	.file 19 "/usr/include/c++/9/cstdio"
	.file 20 "/usr/include/c++/9/bits/basic_string.h"
	.file 21 "/usr/include/c++/9/system_error"
	.file 22 "/usr/include/c++/9/bits/ios_base.h"
	.file 23 "/usr/include/c++/9/cwctype"
	.file 24 "/usr/include/c++/9/bits/ostream.tcc"
	.file 25 "/usr/include/c++/9/iosfwd"
	.file 26 "/usr/include/c++/9/bits/ostream_insert.h"
	.file 27 "/usr/include/c++/9/bits/functexcept.h"
	.file 28 "/usr/include/c++/9/bits/predefined_ops.h"
	.file 29 "/usr/include/c++/9/ext/new_allocator.h"
	.file 30 "/usr/include/c++/9/ext/numeric_traits.h"
	.file 31 "/usr/lib/gcc/x86_64-linux-gnu/9/include/stddef.h"
	.file 32 "/usr/include/stdlib.h"
	.file 33 "/usr/include/x86_64-linux-gnu/bits/types.h"
	.file 34 "/usr/include/x86_64-linux-gnu/bits/stdint-intn.h"
	.file 35 "/usr/include/x86_64-linux-gnu/bits/stdlib-float.h"
	.file 36 "/usr/include/x86_64-linux-gnu/bits/stdlib-bsearch.h"
	.file 37 "/usr/include/x86_64-linux-gnu/bits/stdlib.h"
	.file 38 "/usr/include/c++/9/stdlib.h"
	.file 39 "<built-in>"
	.file 40 "/usr/include/x86_64-linux-gnu/bits/types/wint_t.h"
	.file 41 "/usr/include/x86_64-linux-gnu/bits/types/__mbstate_t.h"
	.file 42 "/usr/include/x86_64-linux-gnu/bits/types/mbstate_t.h"
	.file 43 "/usr/include/x86_64-linux-gnu/bits/types/__FILE.h"
	.file 44 "/usr/include/x86_64-linux-gnu/bits/types/struct_FILE.h"
	.file 45 "/usr/include/x86_64-linux-gnu/bits/types/FILE.h"
	.file 46 "/usr/include/wchar.h"
	.file 47 "/usr/include/x86_64-linux-gnu/bits/wchar2.h"
	.file 48 "/usr/include/x86_64-linux-gnu/bits/types/struct_tm.h"
	.file 49 "/usr/include/x86_64-linux-gnu/bits/stdint-uintn.h"
	.file 50 "/usr/include/stdint.h"
	.file 51 "/usr/include/locale.h"
	.file 52 "/usr/include/time.h"
	.file 53 "/usr/include/x86_64-linux-gnu/c++/9/bits/atomic_word.h"
	.file 54 "/usr/include/x86_64-linux-gnu/bits/types/__fpos_t.h"
	.file 55 "/usr/include/stdio.h"
	.file 56 "/usr/include/x86_64-linux-gnu/bits/sys_errlist.h"
	.file 57 "/usr/include/x86_64-linux-gnu/bits/stdio2.h"
	.file 58 "/usr/include/x86_64-linux-gnu/bits/stdio.h"
	.file 59 "/usr/include/errno.h"
	.file 60 "/usr/include/x86_64-linux-gnu/bits/wctype-wchar.h"
	.file 61 "/usr/include/wctype.h"
	.section	.note.GNU-stack,"",@progbits
	.section	.note.gnu.property,"a"
	.align 8
	.long	 1f - 0f
	.long	 4f - 1f
	.long	 5
0:
	.string	 "GNU"
1:
	.align 8
	.long	 0xc0000002
	.long	 3f - 2f
2:
	.long	 0x3
3:
	.align 8
4:
